; Function Attrs: nounwind uwtable
define internal range(i32 -2147483648, 1) i32 @http_close(ptr noundef %0) #2 {
  %2 = getelementptr inbounds nuw i8, ptr %0, i64 16
  %3 = load ptr, ptr %2, align 8, !tbaa !4
  %4 = getelementptr inbounds nuw i8, ptr %3, i64 10192
  %5 = tail call i32 @inflateEnd(ptr noundef nonnull %4) #15
  %6 = getelementptr inbounds nuw i8, ptr %3, i64 10304
  tail call void @av_freep(ptr noundef nonnull %6) #15
  %7 = getelementptr inbounds nuw i8, ptr %3, i64 8
  %8 = load ptr, ptr %7, align 8, !tbaa !37
  %.not = icmp eq ptr %8, null
  br i1 %.not, label %.thread, label %9

9:                                                ; preds = %1
  %10 = getelementptr inbounds nuw i8, ptr %3, i64 10084
  %11 = load i32, ptr %10, align 4, !tbaa !28
  %.not14 = icmp eq i32 %11, 0
  br i1 %.not14, label %12, label %.thread20

12:                                               ; preds = %9
  %13 = getelementptr inbounds nuw i8, ptr %0, i64 32
  %14 = load i32, ptr %13, align 8, !tbaa !29
  %15 = tail call i32 @http_shutdown(ptr noundef nonnull %0, i32 noundef %14)
  %.pr.pre = load ptr, ptr %7, align 8, !tbaa !37
  %16 = icmp eq ptr %.pr.pre, null
  br i1 %16, label %.thread, label %.thread20

.thread20:                                        ; preds = %9, %12
  %.0.ph23 = phi i32 [ %15, %12 ], [ 0, %9 ]
  %17 = tail call i32 @ffurl_closep(ptr noundef nonnull %7) #15
  br label %.thread

.thread:                                          ; preds = %1, %.thread20, %12
  %.018 = phi i32 [ %.0.ph23, %.thread20 ], [ %15, %12 ], [ 0, %1 ]
  %18 = getelementptr inbounds nuw i8, ptr %3, i64 10312
  tail call void @av_dict_free(ptr noundef nonnull %18) #15
  %19 = getelementptr inbounds nuw i8, ptr %3, i64 10128
  tail call void @av_dict_free(ptr noundef nonnull %19) #15
  %20 = getelementptr inbounds nuw i8, ptr %3, i64 10424
  tail call void @av_dict_free(ptr noundef nonnull %20) #15
  %21 = getelementptr inbounds nuw i8, ptr %3, i64 10416
  tail call void @av_freep(ptr noundef nonnull %21) #15
  %22 = getelementptr inbounds nuw i8, ptr %3, i64 8272
  tail call void @av_freep(ptr noundef nonnull %22) #15
  ret i32 %.018
}